; Function Attrs: mustprogress nounwind willreturn uwtable
define void @Gia_ManStaticFanoutStop(ptr noundef captures(none) %0) local_unnamed_addr #3 {
  %2 = getelementptr inbounds nuw i8, ptr %0, i64 248
  %3 = load ptr, ptr %2, align 8, !tbaa !49
  %4 = icmp eq ptr %3, null
  br i1 %4, label %Vec_IntFreeP.exit, label %5

5:                                                ; preds = %1
  %6 = getelementptr inbounds nuw i8, ptr %3, i64 8
  %7 = load ptr, ptr %6, align 8, !tbaa !41
  %.not.i = icmp eq ptr %7, null
  br i1 %.not.i, label %10, label %.thread.i

.thread.i:                                        ; preds = %5
  tail call void @free(ptr noundef nonnull %7) #15
  %8 = load ptr, ptr %2, align 8, !tbaa !49
  %9 = getelementptr inbounds nuw i8, ptr %8, i64 8
  store ptr null, ptr %9, align 8, !tbaa !41
  br label %10

10:                                               ; preds = %.thread.i, %5
  %11 = phi ptr [ %8, %.thread.i ], [ %3, %5 ]
  tail call void @free(ptr noundef nonnull %11) #15
  store ptr null, ptr %2, align 8, !tbaa !49
  br label %Vec_IntFreeP.exit

Vec_IntFreeP.exit:                                ; preds = %1, %10
  %12 = getelementptr inbounds nuw i8, ptr %0, i64 256
  %13 = load ptr, ptr %12, align 8, !tbaa !49
  %14 = icmp eq ptr %13, null
  br i1 %14, label %Vec_IntFreeP.exit4, label %15

15:                                               ; preds = %Vec_IntFreeP.exit
  %16 = getelementptr inbounds nuw i8, ptr %13, i64 8
  %17 = load ptr, ptr %16, align 8, !tbaa !41
  %.not.i2 = icmp eq ptr %17, null
  br i1 %.not.i2, label %20, label %.thread.i3

.thread.i3:                                       ; preds = %15
  tail call void @free(ptr noundef nonnull %17) #15
  %18 = load ptr, ptr %12, align 8, !tbaa !49
  %19 = getelementptr inbounds nuw i8, ptr %18, i64 8
  store ptr null, ptr %19, align 8, !tbaa !41
  br label %20

20:                                               ; preds = %.thread.i3, %15
  %21 = phi ptr [ %18, %.thread.i3 ], [ %13, %15 ]
  tail call void @free(ptr noundef nonnull %21) #15
  store ptr null, ptr %12, align 8, !tbaa !49
  br label %Vec_IntFreeP.exit4

Vec_IntFreeP.exit4:                               ; preds = %Vec_IntFreeP.exit, %20
  ret void
}